target datalayout = "e-m:e-p270:32:32-p271:32:32-p272:64:64-i64:64-i128:128-f80:128-n8:16:32:64-S128"
target triple = "x86_64-pc-linux-gnu"

@.str.41 = private unnamed_addr constant [1 x i8] zeroinitializer, align 1
@stdout = external global ptr, align 8
@degrade_cc_to_c_warning = internal constant [61 x i8] c"only found copies from modified paths due to too many files.\00", align 16
@rename_limit_warning = internal constant [63 x i8] c"exhaustive rename detection was skipped due to too many files.\00", align 16
@rename_limit_advice = internal constant [75 x i8] c"you may want to set your %s variable to at least %d and retry the command.\00", align 16
@git_gettext_enabled = external global i32, align 4

; Function Attrs: inlinehint nounwind uwtable
define internal ptr @_(ptr noundef %0) #2 {
  %2 = alloca ptr, align 8
  %3 = alloca ptr, align 8
  store ptr %0, ptr %3, align 8, !tbaa !9
  %4 = load ptr, ptr %3, align 8, !tbaa !9
  %5 = load i8, ptr %4, align 1, !tbaa !48
  %6 = icmp ne i8 %5, 0
  br i1 %6, label %8, label %7

7:                                                ; preds = %1
  store ptr @.str.41, ptr %2, align 8
  br label %16

8:                                                ; preds = %1
  %9 = load i32, ptr @git_gettext_enabled, align 4, !tbaa !16
  %10 = icmp ne i32 %9, 0
  br i1 %10, label %13, label %11

11:                                               ; preds = %8
  %12 = load ptr, ptr %3, align 8, !tbaa !9
  store ptr %12, ptr %2, align 8
  br label %16

13:                                               ; preds = %8
  %14 = load ptr, ptr %3, align 8, !tbaa !9
  %15 = call ptr @dcgettext(ptr noundef null, ptr noundef %14, i32 noundef 5) #10
  store ptr %15, ptr %2, align 8
  br label %16

16:                                               ; preds = %13, %11, %7
  %17 = load ptr, ptr %2, align 8
  ret ptr %17
}

; Function Attrs: nounwind uwtable
define dso_local void @diff_warn_rename_limit(ptr noundef %0, i32 noundef %1, i32 noundef %2) #0 {
  %4 = alloca ptr, align 8
  %5 = alloca i32, align 4
  %6 = alloca i32, align 4
  store ptr %0, ptr %4, align 8, !tbaa !9
  store i32 %1, ptr %5, align 4, !tbaa !16
  store i32 %2, ptr %6, align 4, !tbaa !16
  %7 = load ptr, ptr @stdout, align 8, !tbaa !71
  %8 = call i32 @fflush(ptr noundef %7)
  %9 = load i32, ptr %6, align 4, !tbaa !16
  %10 = icmp ne i32 %9, 0
  br i1 %10, label %11, label %13

11:                                               ; preds = %3
  %12 = call ptr @_(ptr noundef @degrade_cc_to_c_warning)
  call void (ptr, ...) @warning(ptr noundef %12)
  br label %20

13:                                               ; preds = %3
  %14 = load i32, ptr %5, align 4, !tbaa !16
  %15 = icmp ne i32 %14, 0
  br i1 %15, label %16, label %18

16:                                               ; preds = %13
  %17 = call ptr @_(ptr noundef @rename_limit_warning)
  call void (ptr, ...) @warning(ptr noundef %17)
  br label %19

18:                                               ; preds = %13
  br label %27

19:                                               ; preds = %16
  br label %20

20:                                               ; preds = %19, %11
  %21 = load i32, ptr %5, align 4, !tbaa !16
  %22 = icmp slt i32 0, %21
  br i1 %22, label %23, label %27

23:                                               ; preds = %20
  %24 = call ptr @_(ptr noundef @rename_limit_advice)
  %25 = load ptr, ptr %4, align 8, !tbaa !9
  %26 = load i32, ptr %5, align 4, !tbaa !16
  call void (ptr, ...) @warning(ptr noundef %24, ptr noundef %25, i32 noundef %26)
  br label %27

27:                                               ; preds = %18, %23, %20
  ret void
}