; Function Attrs: nounwind uwtable
define dso_local void @diff_warn_rename_limit(ptr noundef %0, i32 noundef %1, i32 noundef %2) local_unnamed_addr #0 {
  %4 = load ptr, ptr @stdout, align 8, !tbaa !140
  %5 = tail call i32 @fflush(ptr noundef %4)
  %.not = icmp eq i32 %2, 0
  br i1 %.not, label %8, label %6

6:                                                ; preds = %3
  %7 = load i32, ptr @git_gettext_enabled, align 4, !tbaa !11
  %.not4.i = icmp eq i32 %7, 0
  br i1 %.not4.i, label %_.exit, label %_.exit.sink.split

8:                                                ; preds = %3
  %.not4 = icmp eq i32 %1, 0
  br i1 %.not4, label %17, label %9

9:                                                ; preds = %8
  %10 = load i32, ptr @git_gettext_enabled, align 4, !tbaa !11
  %.not4.i5 = icmp eq i32 %10, 0
  br i1 %.not4.i5, label %_.exit, label %_.exit.sink.split

_.exit.sink.split:                                ; preds = %9, %6
  %rename_limit_warning.sink = phi ptr [ @degrade_cc_to_c_warning, %6 ], [ @rename_limit_warning, %9 ]
  %11 = tail call ptr @dcgettext(ptr noundef null, ptr noundef nonnull %rename_limit_warning.sink, i32 noundef 5) #32
  br label %_.exit

_.exit:                                           ; preds = %_.exit.sink.split, %9, %6
  %.0.i6.sink = phi ptr [ @degrade_cc_to_c_warning, %6 ], [ @rename_limit_warning, %9 ], [ %11, %_.exit.sink.split ]
  tail call void (ptr, ...) @warning(ptr noundef %.0.i6.sink) #32
  %12 = icmp sgt i32 %1, 0
  br i1 %12, label %13, label %17

13:                                               ; preds = %_.exit
  %14 = load i32, ptr @git_gettext_enabled, align 4, !tbaa !11
  %.not4.i8 = icmp eq i32 %14, 0
  br i1 %.not4.i8, label %_.exit10, label %15

15:                                               ; preds = %13
  %16 = tail call ptr @dcgettext(ptr noundef null, ptr noundef nonnull @rename_limit_advice, i32 noundef 5) #32
  br label %_.exit10

_.exit10:                                         ; preds = %13, %15
  %.0.i9 = phi ptr [ %16, %15 ], [ @rename_limit_advice, %13 ]
  tail call void (ptr, ...) @warning(ptr noundef %.0.i9, ptr noundef %0, i32 noundef %1) #32
  br label %17

17:                                               ; preds = %8, %_.exit10, %_.exit
  ret void
}